target datalayout = "e-m:e-p270:32:32-p271:32:32-p272:64:64-i64:64-i128:128-f80:128-n8:16:32:64-S128"
target triple = "x86_64-pc-linux-gnu"

@.str = private unnamed_addr constant [31 x i8] c"Miter computation has failed.\0A\00", align 1
@.str.1 = private unnamed_addr constant [55 x i8] c"Networks are NOT EQUIVALENT after structural hashing.\0A\00", align 1
@.str.2 = private unnamed_addr constant [51 x i8] c"Networks are equivalent after structural hashing.\0A\00", align 1
@.str.3 = private unnamed_addr constant [30 x i8] c"Renoding for CNF has failed.\0A\00", align 1
@.str.4 = private unnamed_addr constant [48 x i8] c"Networks are undecided (SAT solver timed out).\0A\00", align 1
@.str.5 = private unnamed_addr constant [40 x i8] c"Networks are NOT EQUIVALENT after SAT.\0A\00", align 1
@.str.6 = private unnamed_addr constant [36 x i8] c"Networks are equivalent after SAT.\0A\00", align 1
@.str.28 = private unnamed_addr constant [32 x i8] c"Frames computation has failed.\0A\00", align 1
@.str.29 = private unnamed_addr constant [44 x i8] c"Networks are NOT EQUIVALENT after framing.\0A\00", align 1
@.str.30 = private unnamed_addr constant [40 x i8] c"Networks are equivalent after framing.\0A\00", align 1

; Function Attrs: nounwind uwtable
define void @Abc_NtkSecSat(ptr noundef %0, ptr noundef %1, i32 noundef %2, i32 noundef %3, i32 noundef %4) #0 {
  %6 = alloca ptr, align 8
  %7 = alloca ptr, align 8
  %8 = alloca i32, align 4
  %9 = alloca i32, align 4
  %10 = alloca i32, align 4
  %11 = alloca ptr, align 8
  %12 = alloca ptr, align 8
  %13 = alloca ptr, align 8
  %14 = alloca i32, align 4
  %15 = alloca i32, align 4
  store ptr %0, ptr %6, align 8, !tbaa !3
  store ptr %1, ptr %7, align 8, !tbaa !3
  store i32 %2, ptr %8, align 4, !tbaa !8
  store i32 %3, ptr %9, align 4, !tbaa !8
  store i32 %4, ptr %10, align 4, !tbaa !8
  call void @llvm.lifetime.start.p0(i64 8, ptr %11) #10
  call void @llvm.lifetime.start.p0(i64 8, ptr %12) #10
  call void @llvm.lifetime.start.p0(i64 8, ptr %13) #10
  call void @llvm.lifetime.start.p0(i64 4, ptr %14) #10
  %16 = load ptr, ptr %6, align 8, !tbaa !3
  %17 = load ptr, ptr %7, align 8, !tbaa !3
  %18 = call ptr @Abc_NtkMiter(ptr noundef %16, ptr noundef %17, i32 noundef 0, i32 noundef 0, i32 noundef 0, i32 noundef 0)
  store ptr %18, ptr %11, align 8, !tbaa !3
  %19 = load ptr, ptr %11, align 8, !tbaa !3
  %20 = icmp eq ptr %19, null
  br i1 %20, label %21, label %23

21:                                               ; preds = %5
  %22 = call i32 (ptr, ...) @printf(ptr noundef @.str)
  store i32 1, ptr %15, align 4
  br label %89

23:                                               ; preds = %5
  %24 = load ptr, ptr %11, align 8, !tbaa !3
  %25 = call i32 @Abc_NtkMiterIsConstant(ptr noundef %24)
  store i32 %25, ptr %14, align 4, !tbaa !8
  %26 = load i32, ptr %14, align 4, !tbaa !8
  %27 = icmp eq i32 %26, 0
  br i1 %27, label %28, label %31

28:                                               ; preds = %23
  %29 = load ptr, ptr %11, align 8, !tbaa !3
  call void @Abc_NtkDelete(ptr noundef %29)
  %30 = call i32 (ptr, ...) @printf(ptr noundef @.str.1)
  store i32 1, ptr %15, align 4
  br label %89

31:                                               ; preds = %23
  %32 = load i32, ptr %14, align 4, !tbaa !8
  %33 = icmp eq i32 %32, 1
  br i1 %33, label %34, label %37

34:                                               ; preds = %31
  %35 = load ptr, ptr %11, align 8, !tbaa !3
  call void @Abc_NtkDelete(ptr noundef %35)
  %36 = call i32 (ptr, ...) @printf(ptr noundef @.str.2)
  store i32 1, ptr %15, align 4
  br label %89

37:                                               ; preds = %31
  %38 = load ptr, ptr %11, align 8, !tbaa !3
  %39 = load i32, ptr %10, align 4, !tbaa !8
  %40 = call ptr @Abc_NtkFrames(ptr noundef %38, i32 noundef %39, i32 noundef 1, i32 noundef 0)
  store ptr %40, ptr %12, align 8, !tbaa !3
  %41 = load ptr, ptr %11, align 8, !tbaa !3
  call void @Abc_NtkDelete(ptr noundef %41)
  %42 = load ptr, ptr %12, align 8, !tbaa !3
  %43 = icmp eq ptr %42, null
  br i1 %43, label %44, label %46

44:                                               ; preds = %37
  %45 = call i32 (ptr, ...) @printf(ptr noundef @.str.28)
  store i32 1, ptr %15, align 4
  br label %89

46:                                               ; preds = %37
  %47 = load ptr, ptr %12, align 8, !tbaa !3
  %48 = call i32 @Abc_NtkMiterIsConstant(ptr noundef %47)
  store i32 %48, ptr %14, align 4, !tbaa !8
  %49 = load i32, ptr %14, align 4, !tbaa !8
  %50 = icmp eq i32 %49, 0
  br i1 %50, label %51, label %54

51:                                               ; preds = %46
  %52 = load ptr, ptr %12, align 8, !tbaa !3
  call void @Abc_NtkDelete(ptr noundef %52)
  %53 = call i32 (ptr, ...) @printf(ptr noundef @.str.29)
  store i32 1, ptr %15, align 4
  br label %89

54:                                               ; preds = %46
  %55 = load i32, ptr %14, align 4, !tbaa !8
  %56 = icmp eq i32 %55, 1
  br i1 %56, label %57, label %60

57:                                               ; preds = %54
  %58 = load ptr, ptr %12, align 8, !tbaa !3
  call void @Abc_NtkDelete(ptr noundef %58)
  %59 = call i32 (ptr, ...) @printf(ptr noundef @.str.30)
  store i32 1, ptr %15, align 4
  br label %89

60:                                               ; preds = %54
  %61 = load ptr, ptr %12, align 8, !tbaa !3
  %62 = call ptr @Abc_NtkMulti(ptr noundef %61, i32 noundef 0, i32 noundef 100, i32 noundef 1, i32 noundef 0, i32 noundef 0, i32 noundef 0)
  store ptr %62, ptr %13, align 8, !tbaa !3
  %63 = load ptr, ptr %12, align 8, !tbaa !3
  call void @Abc_NtkDelete(ptr noundef %63)
  %64 = load ptr, ptr %13, align 8, !tbaa !3
  %65 = icmp eq ptr %64, null
  br i1 %65, label %66, label %68

66:                                               ; preds = %60
  %67 = call i32 (ptr, ...) @printf(ptr noundef @.str.3)
  store i32 1, ptr %15, align 4
  br label %89

68:                                               ; preds = %60
  %69 = load ptr, ptr %13, align 8, !tbaa !3
  %70 = load i32, ptr %8, align 4, !tbaa !8
  %71 = sext i32 %70 to i64
  %72 = load i32, ptr %9, align 4, !tbaa !8
  %73 = sext i32 %72 to i64
  %74 = call i32 @Abc_NtkMiterSat(ptr noundef %69, i64 noundef %71, i64 noundef %73, i32 noundef 0, ptr noundef null, ptr noundef null)
  store i32 %74, ptr %14, align 4, !tbaa !8
  %75 = load i32, ptr %14, align 4, !tbaa !8
  %76 = icmp eq i32 %75, -1
  br i1 %76, label %77, label %79

77:                                               ; preds = %68
  %78 = call i32 (ptr, ...) @printf(ptr noundef @.str.4)
  br label %87

79:                                               ; preds = %68
  %80 = load i32, ptr %14, align 4, !tbaa !8
  %81 = icmp eq i32 %80, 0
  br i1 %81, label %82, label %84

82:                                               ; preds = %79
  %83 = call i32 (ptr, ...) @printf(ptr noundef @.str.5)
  br label %86

84:                                               ; preds = %79
  %85 = call i32 (ptr, ...) @printf(ptr noundef @.str.6)
  br label %86

86:                                               ; preds = %84, %82
  br label %87

87:                                               ; preds = %86, %77
  %88 = load ptr, ptr %13, align 8, !tbaa !3
  call void @Abc_NtkDelete(ptr noundef %88)
  store i32 0, ptr %15, align 4
  br label %89

89:                                               ; preds = %87, %66, %57, %51, %44, %34, %28, %21
  call void @llvm.lifetime.end.p0(i64 4, ptr %14) #10
  call void @llvm.lifetime.end.p0(i64 8, ptr %13) #10
  call void @llvm.lifetime.end.p0(i64 8, ptr %12) #10
  call void @llvm.lifetime.end.p0(i64 8, ptr %11) #10
  %90 = load i32, ptr %15, align 4
  switch i32 %90, label %92 [
    i32 0, label %91
    i32 1, label %91
  ]

91:                                               ; preds = %89, %89
  ret void

92:                                               ; preds = %89
  unreachable
}