; Function Attrs: nounwind uwtable
define void @Abc_NtkSecSat(ptr noundef %0, ptr noundef %1, i32 noundef %2, i32 noundef %3, i32 noundef %4) local_unnamed_addr #0 {
  %6 = tail call ptr @Abc_NtkMiter(ptr noundef %0, ptr noundef %1, i32 noundef 0, i32 noundef 0, i32 noundef 0, i32 noundef 0) #15
  %7 = icmp eq ptr %6, null
  br i1 %7, label %8, label %9

8:                                                ; preds = %5
  %puts38 = tail call i32 @puts(ptr nonnull dereferenceable(1) @str.44)
  br label %29

9:                                                ; preds = %5
  %10 = tail call i32 @Abc_NtkMiterIsConstant(ptr noundef nonnull %6) #15
  switch i32 %10, label %13 [
    i32 0, label %11
    i32 1, label %12
  ]

11:                                               ; preds = %9
  tail call void @Abc_NtkDelete(ptr noundef nonnull %6) #15
  %puts37 = tail call i32 @puts(ptr nonnull dereferenceable(1) @str.43)
  br label %29

12:                                               ; preds = %9
  tail call void @Abc_NtkDelete(ptr noundef nonnull %6) #15
  %puts36 = tail call i32 @puts(ptr nonnull dereferenceable(1) @str.42)
  br label %29

13:                                               ; preds = %9
  %14 = tail call ptr @Abc_NtkFrames(ptr noundef nonnull %6, i32 noundef %4, i32 noundef 1, i32 noundef 0) #15
  tail call void @Abc_NtkDelete(ptr noundef nonnull %6) #15
  %15 = icmp eq ptr %14, null
  br i1 %15, label %16, label %17

16:                                               ; preds = %13
  %puts35 = tail call i32 @puts(ptr nonnull dereferenceable(1) @str.41)
  br label %29

17:                                               ; preds = %13
  %18 = tail call i32 @Abc_NtkMiterIsConstant(ptr noundef nonnull %14) #15
  switch i32 %18, label %21 [
    i32 0, label %19
    i32 1, label %20
  ]

19:                                               ; preds = %17
  tail call void @Abc_NtkDelete(ptr noundef nonnull %14) #15
  %puts34 = tail call i32 @puts(ptr nonnull dereferenceable(1) @str.40)
  br label %29

20:                                               ; preds = %17
  tail call void @Abc_NtkDelete(ptr noundef nonnull %14) #15
  %puts33 = tail call i32 @puts(ptr nonnull dereferenceable(1) @str.39)
  br label %29

21:                                               ; preds = %17
  %22 = tail call ptr @Abc_NtkMulti(ptr noundef nonnull %14, i32 noundef 0, i32 noundef 100, i32 noundef 1, i32 noundef 0, i32 noundef 0, i32 noundef 0) #15
  tail call void @Abc_NtkDelete(ptr noundef nonnull %14) #15
  %23 = icmp eq ptr %22, null
  br i1 %23, label %24, label %25

24:                                               ; preds = %21
  %puts32 = tail call i32 @puts(ptr nonnull dereferenceable(1) @str.29)
  br label %29

25:                                               ; preds = %21
  %26 = sext i32 %2 to i64
  %27 = sext i32 %3 to i64
  %28 = tail call i32 @Abc_NtkMiterSat(ptr noundef nonnull %22, i64 noundef %26, i64 noundef %27, i32 noundef 0, ptr noundef null, ptr noundef null) #15
  %switch.selectcmp = icmp eq i32 %28, 0
  %switch.select = select i1 %switch.selectcmp, ptr @str.27, ptr @str.26
  %switch.selectcmp39 = icmp eq i32 %28, -1
  %switch.select40 = select i1 %switch.selectcmp39, ptr @str.28, ptr %switch.select
  %puts30 = tail call i32 @puts(ptr nonnull dereferenceable(1) %switch.select40)
  tail call void @Abc_NtkDelete(ptr noundef nonnull %22) #15
  br label %29

29:                                               ; preds = %25, %24, %20, %19, %16, %12, %11, %8
  ret void
}